; Function Attrs: mustprogress nounwind uwtable
define dso_local void @_ZN4node6timers11BindingData18SlowToggleTimerRefERKN2v820FunctionCallbackInfoINS2_5ValueEEE(ptr noundef nonnull align 8 dereferenceable(20) %args) #3 align 2 {
entry:
  %call = tail call noundef ptr @_ZN4node5Realm14GetBindingDataINS_6timers11BindingDataEEEPT_RKN2v820FunctionCallbackInfoINS6_5ValueEEE(ptr noundef nonnull align 8 dereferenceable(20) %args)
  %length_.i = getelementptr inbounds i8, ptr %args, i64 16
  %0 = load i32, ptr %length_.i, align 8
  %cmp2.i = icmp slt i32 %0, 1
  br i1 %cmp2.i, label %if.then.i, label %if.end.i

if.then.i:                                        ; preds = %entry
  %1 = load ptr, ptr %args, align 8
  %arrayidx.i = getelementptr inbounds i8, ptr %1, i64 8
  %2 = load ptr, ptr %arrayidx.i, align 8
  %3 = ptrtoint ptr %2 to i64
  %add1.i = add i64 %3, 608
  %4 = inttoptr i64 %add1.i to ptr
  br label %_ZNK2v820FunctionCallbackInfoINS_5ValueEEixEi.exit

if.end.i:                                         ; preds = %entry
  %values_.i = getelementptr inbounds i8, ptr %args, i64 8
  %5 = load ptr, ptr %values_.i, align 8
  br label %_ZNK2v820FunctionCallbackInfoINS_5ValueEEixEi.exit

_ZNK2v820FunctionCallbackInfoINS_5ValueEEixEi.exit: ; preds = %if.end.i, %if.then.i
  %retval.i.sroa.0.0 = phi ptr [ %4, %if.then.i ], [ %5, %if.end.i ]
  %call5 = tail call noundef zeroext i1 @_ZNK2v85Value6IsTrueEv(ptr noundef nonnull align 1 dereferenceable(1) %retval.i.sroa.0.0) #15
  %realm_.i.i = getelementptr inbounds i8, ptr %call, i64 16
  %6 = load ptr, ptr %realm_.i.i, align 8
  %env_.i.i.i = getelementptr inbounds i8, ptr %6, i64 176
  %7 = load ptr, ptr %env_.i.i.i, align 8
  tail call void @_ZN4node11Environment14ToggleTimerRefEb(ptr noundef nonnull align 8 dereferenceable(2872) %7, i1 noundef zeroext %call5) #15
  ret void
}